; ModuleID = '12/910.c'
source_filename = "12/910.c"
target datalayout = "e-m:e-p270:32:32-p271:32:32-p272:64:64-i64:64-f80:128-n8:16:32:64-S128"
target triple = "x86_64-pc-linux-gnu"

@.str = private unnamed_addr constant [3 x i8] c"%d\00", align 1
@.str.1 = private unnamed_addr constant [4 x i8] c"%d\0A\00", align 1

; Function Attrs: noinline nounwind uwtable
define dso_local void @main() #0 {
  %1 = alloca i32, align 4
  %2 = alloca i32, align 4
  %3 = alloca i32, align 4
  %4 = alloca i32, align 4
  %5 = alloca [100 x [100 x i32]], align 16
  %6 = alloca [100 x i32], align 16
  store i32 0, i32* %4, align 4
  %7 = bitcast [100 x i32]* %6 to i8*
  call void @llvm.memset.p0i8.i64(i8* align 16 %7, i8 0, i64 400, i1 false)
  store i32 1, i32* %2, align 4
  br label %8

8:                                                ; preds = %95, %0
  %9 = load i32, i32* %2, align 4
  %10 = sext i32 %9 to i64
  %11 = getelementptr inbounds [100 x [100 x i32]], [100 x [100 x i32]]* %5, i64 0, i64 %10
  %12 = getelementptr inbounds [100 x i32], [100 x i32]* %11, i64 0, i64 1
  %13 = call i32 (i8*, ...) @__isoc99_scanf(i8* getelementptr inbounds ([3 x i8], [3 x i8]* @.str, i64 0, i64 0), i32* %12)
  %14 = load i32, i32* %2, align 4
  %15 = sext i32 %14 to i64
  %16 = getelementptr inbounds [100 x [100 x i32]], [100 x [100 x i32]]* %5, i64 0, i64 %15
  %17 = getelementptr inbounds [100 x i32], [100 x i32]* %16, i64 0, i64 1
  %18 = load i32, i32* %17, align 4
  %19 = icmp eq i32 %18, -1
  br i1 %19, label %20, label %21

20:                                               ; preds = %8
  br label %98

21:                                               ; preds = %8
  store i32 2, i32* %1, align 4
  br label %22

22:                                               ; preds = %89, %21
  %23 = load i32, i32* %2, align 4
  %24 = sext i32 %23 to i64
  %25 = getelementptr inbounds [100 x [100 x i32]], [100 x [100 x i32]]* %5, i64 0, i64 %24
  %26 = load i32, i32* %1, align 4
  %27 = sext i32 %26 to i64
  %28 = getelementptr inbounds [100 x i32], [100 x i32]* %25, i64 0, i64 %27
  %29 = call i32 (i8*, ...) @__isoc99_scanf(i8* getelementptr inbounds ([3 x i8], [3 x i8]* @.str, i64 0, i64 0), i32* %28)
  %30 = load i32, i32* %2, align 4
  %31 = sext i32 %30 to i64
  %32 = getelementptr inbounds [100 x [100 x i32]], [100 x [100 x i32]]* %5, i64 0, i64 %31
  %33 = load i32, i32* %1, align 4
  %34 = sext i32 %33 to i64
  %35 = getelementptr inbounds [100 x i32], [100 x i32]* %32, i64 0, i64 %34
  %36 = load i32, i32* %35, align 4
  %37 = icmp eq i32 %36, 0
  br i1 %37, label %38, label %39

38:                                               ; preds = %22
  br label %92

39:                                               ; preds = %22
  %40 = load i32, i32* %1, align 4
  store i32 %40, i32* %3, align 4
  br label %41

41:                                               ; preds = %85, %39
  %42 = load i32, i32* %3, align 4
  %43 = icmp sge i32 %42, 1
  br i1 %43, label %44, label %88

44:                                               ; preds = %41
  %45 = load i32, i32* %2, align 4
  %46 = sext i32 %45 to i64
  %47 = getelementptr inbounds [100 x [100 x i32]], [100 x [100 x i32]]* %5, i64 0, i64 %46
  %48 = load i32, i32* %3, align 4
  %49 = sext i32 %48 to i64
  %50 = getelementptr inbounds [100 x i32], [100 x i32]* %47, i64 0, i64 %49
  %51 = load i32, i32* %50, align 4
  %52 = load i32, i32* %2, align 4
  %53 = sext i32 %52 to i64
  %54 = getelementptr inbounds [100 x [100 x i32]], [100 x [100 x i32]]* %5, i64 0, i64 %53
  %55 = load i32, i32* %1, align 4
  %56 = sext i32 %55 to i64
  %57 = getelementptr inbounds [100 x i32], [100 x i32]* %54, i64 0, i64 %56
  %58 = load i32, i32* %57, align 4
  %59 = mul nsw i32 2, %58
  %60 = icmp eq i32 %51, %59
  br i1 %60, label %78, label %61

61:                                               ; preds = %44
  %62 = load i32, i32* %2, align 4
  %63 = sext i32 %62 to i64
  %64 = getelementptr inbounds [100 x [100 x i32]], [100 x [100 x i32]]* %5, i64 0, i64 %63
  %65 = load i32, i32* %1, align 4
  %66 = sext i32 %65 to i64
  %67 = getelementptr inbounds [100 x i32], [100 x i32]* %64, i64 0, i64 %66
  %68 = load i32, i32* %67, align 4
  %69 = load i32, i32* %2, align 4
  %70 = sext i32 %69 to i64
  %71 = getelementptr inbounds [100 x [100 x i32]], [100 x [100 x i32]]* %5, i64 0, i64 %70
  %72 = load i32, i32* %3, align 4
  %73 = sext i32 %72 to i64
  %74 = getelementptr inbounds [100 x i32], [100 x i32]* %71, i64 0, i64 %73
  %75 = load i32, i32* %74, align 4
  %76 = mul nsw i32 2, %75
  %77 = icmp eq i32 %68, %76
  br i1 %77, label %78, label %84

78:                                               ; preds = %61, %44
  %79 = load i32, i32* %2, align 4
  %80 = sext i32 %79 to i64
  %81 = getelementptr inbounds [100 x i32], [100 x i32]* %6, i64 0, i64 %80
  %82 = load i32, i32* %81, align 4
  %83 = add nsw i32 %82, 1
  store i32 %83, i32* %81, align 4
  br label %84

84:                                               ; preds = %78, %61
  br label %85

85:                                               ; preds = %84
  %86 = load i32, i32* %3, align 4
  %87 = add nsw i32 %86, -1
  store i32 %87, i32* %3, align 4
  br label %41

88:                                               ; preds = %41
  br label %89

89:                                               ; preds = %88
  %90 = load i32, i32* %1, align 4
  %91 = add nsw i32 %90, 1
  store i32 %91, i32* %1, align 4
  br label %22

92:                                               ; preds = %38
  %93 = load i32, i32* %4, align 4
  %94 = add nsw i32 %93, 1
  store i32 %94, i32* %4, align 4
  br label %95

95:                                               ; preds = %92
  %96 = load i32, i32* %2, align 4
  %97 = add nsw i32 %96, 1
  store i32 %97, i32* %2, align 4
  br label %8

98:                                               ; preds = %20
  store i32 1, i32* %2, align 4
  br label %99

99:                                               ; preds = %109, %98
  %100 = load i32, i32* %2, align 4
  %101 = load i32, i32* %4, align 4
  %102 = icmp sle i32 %100, %101
  br i1 %102, label %103, label %112

103:                                              ; preds = %99
  %104 = load i32, i32* %2, align 4
  %105 = sext i32 %104 to i64
  %106 = getelementptr inbounds [100 x i32], [100 x i32]* %6, i64 0, i64 %105
  %107 = load i32, i32* %106, align 4
  %108 = call i32 (i8*, ...) @printf(i8* getelementptr inbounds ([4 x i8], [4 x i8]* @.str.1, i64 0, i64 0), i32 %107)
  br label %109

109:                                              ; preds = %103
  %110 = load i32, i32* %2, align 4
  %111 = add nsw i32 %110, 1
  store i32 %111, i32* %2, align 4
  br label %99

112:                                              ; preds = %99
  ret void
}

; Function Attrs: argmemonly nounwind willreturn
declare void @llvm.memset.p0i8.i64(i8* nocapture writeonly, i8, i64, i1 immarg) #1

declare dso_local i32 @__isoc99_scanf(i8*, ...) #2

declare dso_local i32 @printf(i8*, ...) #2


!llvm.module.flags = !{!0}
!llvm.ident = !{!1}

!0 = !{i32 1, !"wchar_size", i32 4}
!1 = !{!"clang version 10.0.0-4ubuntu1 "}
