; ModuleID = 'source-C-CXX/11/910.c'
source_filename = "source-C-CXX/11/910.c"
target datalayout = "e-m:e-p270:32:32-p271:32:32-p272:64:64-i64:64-f80:128-n8:16:32:64-S128"
target triple = "x86_64-pc-linux-gnu"

@.str = private unnamed_addr constant [3 x i8] c"%d\00", align 1
@.str.1 = private unnamed_addr constant [4 x i8] c"%d\0A\00", align 1

; Function Attrs: nofree nounwind sspstrong uwtable
define dso_local void @main() local_unnamed_addr #0 {
  %1 = alloca [100 x [100 x i32]], align 16
  %2 = alloca [100 x i32], align 16
  %3 = bitcast [100 x [100 x i32]]* %1 to i8*
  call void @llvm.lifetime.start.p0i8(i64 40000, i8* nonnull %3) #4
  %4 = bitcast [100 x i32]* %2 to i8*
  call void @llvm.lifetime.start.p0i8(i64 400, i8* nonnull %4) #4
  call void @llvm.memset.p0i8.i64(i8* noundef nonnull align 16 dereferenceable(400) %4, i8 0, i64 400, i1 false)
  %5 = getelementptr inbounds [100 x [100 x i32]], [100 x [100 x i32]]* %1, i64 0, i64 1, i64 1
  %6 = call i32 (i8*, ...) @__isoc99_scanf(i8* getelementptr inbounds ([3 x i8], [3 x i8]* @.str, i64 0, i64 0), i32* nonnull %5)
  %7 = load i32, i32* %5, align 4, !tbaa !5
  %8 = icmp eq i32 %7, -1
  br i1 %8, label %58, label %9

9:                                                ; preds = %0, %44
  %10 = phi i64 [ %46, %44 ], [ 1, %0 ]
  %11 = phi i32 [ %45, %44 ], [ 0, %0 ]
  %12 = getelementptr inbounds [100 x i32], [100 x i32]* %2, i64 0, i64 %10
  %13 = getelementptr inbounds [100 x [100 x i32]], [100 x [100 x i32]]* %1, i64 0, i64 %10, i64 2
  %14 = call i32 (i8*, ...) @__isoc99_scanf(i8* getelementptr inbounds ([3 x i8], [3 x i8]* @.str, i64 0, i64 0), i32* nonnull %13)
  %15 = load i32, i32* %13, align 8, !tbaa !5
  %16 = icmp eq i32 %15, 0
  br i1 %16, label %44, label %20

17:                                               ; preds = %44
  %18 = add nuw i32 %11, 2
  %19 = zext i32 %18 to i64
  br label %51

20:                                               ; preds = %9, %38
  %21 = phi i64 [ %39, %38 ], [ 2, %9 ]
  %22 = phi i32 [ %42, %38 ], [ %15, %9 ]
  %23 = shl nsw i32 %22, 1
  br label %24

24:                                               ; preds = %20, %35
  %25 = phi i64 [ %21, %20 ], [ %37, %35 ]
  %26 = getelementptr inbounds [100 x [100 x i32]], [100 x [100 x i32]]* %1, i64 0, i64 %10, i64 %25
  %27 = load i32, i32* %26, align 4, !tbaa !5
  %28 = icmp eq i32 %27, %23
  %29 = shl nsw i32 %27, 1
  %30 = icmp eq i32 %22, %29
  %31 = select i1 %28, i1 true, i1 %30
  br i1 %31, label %32, label %35

32:                                               ; preds = %24
  %33 = load i32, i32* %12, align 4, !tbaa !5
  %34 = add nsw i32 %33, 1
  store i32 %34, i32* %12, align 4, !tbaa !5
  br label %35

35:                                               ; preds = %24, %32
  %36 = icmp sgt i64 %25, 1
  %37 = add nsw i64 %25, -1
  br i1 %36, label %24, label %38, !llvm.loop !9

38:                                               ; preds = %35
  %39 = add nuw i64 %21, 1
  %40 = getelementptr inbounds [100 x [100 x i32]], [100 x [100 x i32]]* %1, i64 0, i64 %10, i64 %39
  %41 = call i32 (i8*, ...) @__isoc99_scanf(i8* getelementptr inbounds ([3 x i8], [3 x i8]* @.str, i64 0, i64 0), i32* nonnull %40)
  %42 = load i32, i32* %40, align 4, !tbaa !5
  %43 = icmp eq i32 %42, 0
  br i1 %43, label %44, label %20

44:                                               ; preds = %38, %9
  %45 = add nuw nsw i32 %11, 1
  %46 = add nuw i64 %10, 1
  %47 = getelementptr inbounds [100 x [100 x i32]], [100 x [100 x i32]]* %1, i64 0, i64 %46, i64 1
  %48 = call i32 (i8*, ...) @__isoc99_scanf(i8* getelementptr inbounds ([3 x i8], [3 x i8]* @.str, i64 0, i64 0), i32* nonnull %47)
  %49 = load i32, i32* %47, align 4, !tbaa !5
  %50 = icmp eq i32 %49, -1
  br i1 %50, label %17, label %9

51:                                               ; preds = %17, %51
  %52 = phi i64 [ 1, %17 ], [ %56, %51 ]
  %53 = getelementptr inbounds [100 x i32], [100 x i32]* %2, i64 0, i64 %52
  %54 = load i32, i32* %53, align 4, !tbaa !5
  %55 = call i32 (i8*, ...) @printf(i8* nonnull dereferenceable(1) getelementptr inbounds ([4 x i8], [4 x i8]* @.str.1, i64 0, i64 0), i32 %54)
  %56 = add nuw nsw i64 %52, 1
  %57 = icmp eq i64 %56, %19
  br i1 %57, label %58, label %51, !llvm.loop !11

58:                                               ; preds = %51, %0
  call void @llvm.lifetime.end.p0i8(i64 400, i8* nonnull %4) #4
  call void @llvm.lifetime.end.p0i8(i64 40000, i8* nonnull %3) #4
  ret void
}

; Function Attrs: argmemonly mustprogress nofree nosync nounwind willreturn
declare void @llvm.lifetime.start.p0i8(i64 immarg, i8* nocapture) #1

; Function Attrs: argmemonly mustprogress nofree nounwind willreturn writeonly
declare void @llvm.memset.p0i8.i64(i8* nocapture writeonly, i8, i64, i1 immarg) #2

; Function Attrs: nofree nounwind
declare noundef i32 @__isoc99_scanf(i8* nocapture noundef readonly, ...) local_unnamed_addr #3

; Function Attrs: nofree nounwind
declare noundef i32 @printf(i8* nocapture noundef readonly, ...) local_unnamed_addr #3

; Function Attrs: argmemonly mustprogress nofree nosync nounwind willreturn
declare void @llvm.lifetime.end.p0i8(i64 immarg, i8* nocapture) #1


!llvm.module.flags = !{!0, !1, !2, !3}
!llvm.ident = !{!4}

!0 = !{i32 1, !"wchar_size", i32 4}
!1 = !{i32 7, !"PIC Level", i32 2}
!2 = !{i32 7, !"PIE Level", i32 2}
!3 = !{i32 7, !"uwtable", i32 1}
!4 = !{!"clang version 13.0.0"}
!5 = !{!6, !6, i64 0}
!6 = !{!"int", !7, i64 0}
!7 = !{!"omnipotent char", !8, i64 0}
!8 = !{!"Simple C/C++ TBAA"}
!9 = distinct !{!9, !10}
!10 = !{!"llvm.loop.mustprogress"}
!11 = distinct !{!11, !10}
